(lp0
(dp1
Vdomain
p2
V.jd.com
p3
sVname
p4
Vceshi3.com
p5
sVvalue
p6
V000
p7
sVpath
p8
V/
p9
sVhttpOnly
p10
I00
sVsecure
p11
I00
sa(dp12
Vdomain
p13
V.jd.com
p14
sVsecure
p15
I00
sVvalue
p16
VjTQA_2o8FFWIP5KeayDcqbV9-x-f3wj7
p17
sVexpiry
p18
F1535622629.976858
sVpath
p19
g9
sVhttpOnly
p20
I00
sVname
p21
VpinId
p22
sa(dp23
Vdomain
p24
V.jd.com
p25
sVsecure
p26
I00
sVvalue
p27
V122270672|p.egou.com|t_36378_879600_c|tuiguang|1c6fb4abb5f04017a0d605d0e201e806|1504086631429
p28
sVexpiry
p29
I1505382631
sVpath
p30
g9
sVhttpOnly
p31
I00
sVname
p32
V__jdv
p33
sa(dp34
Vdomain
p35
V.jd.com
p36
sVsecure
p37
I00
sVvalue
p38
V18uZ4MgxFs1Eb3S6MhidMCP-QHlqamiov3hZjPQv_dBZDrWPh2fP-SD552B9Dp6qvfWSDf8WJiO79xP47cys85vW5U64PErjYN1VPn11hYNUTkp22IYRUJ7NGQMh2AACA
p39
sVexpiry
p40
F1661766629.976828
sVpath
p41
g9
sVhttpOnly
p42
I00
sVname
p43
VTrackID
p44
sa(dp45
Vdomain
p46
V.jd.com
p47
sVsecure
p48
I00
sVvalue
p49
Vjd_5189d4ed72ad8
p50
sVexpiry
p51
F1506678629.976884
sVpath
p52
g9
sVhttpOnly
p53
I00
sVname
p54
Vpin
p55
sa(dp56
Vdomain
p57
V.jd.com
p58
sVsecure
p59
I00
sVvalue
p60
Vjd_134241704
p61
sVexpiry
p62
F1506678629.976906
sVpath
p63
g9
sVhttpOnly
p64
I01
sVname
p65
Vunick
p66
sa(dp67
Vdomain
p68
V.jd.com
p69
sVname
p70
Vthor
p71
sVvalue
p72
V9553B67272BECEB392F693ECE217724B7D0B353367936B437F6175E03D6E08FDBEF5057FAF7377F3F3E2140F1CAF4D51768E77887AE0A3D1A4E7B0C8025022BA788813066E1EF0799A2D0D7CECC68C4A88251983DDBA6DAB91A4B174B8A656758E0B705704B3D5B286DAE0202E0350B57C9D85998A2B02E08A73A574DBFC46D58AD712FAB687EFC9D761D7CAEBC1F3DC79608B04042E6696A798E6043FF10EFD
p73
sVpath
p74
g9
sVhttpOnly
p75
I01
sVsecure
p76
I00
sa(dp77
Vdomain
p78
V.jd.com
p79
sVname
p80
V__jdc
p81
sVvalue
p82
V122270672
p83
sVpath
p84
g9
sVhttpOnly
p85
I00
sVsecure
p86
I00
sa(dp87
Vdomain
p88
V.jd.com
p89
sVsecure
p90
I00
sVvalue
p91
VxthbuJHv5BzZv8ix8mLqw0VMGWntYkqNo7rwbX%2FYfIs%3D
p92
sVexpiry
p93
F1506678629.976968
sVpath
p94
g9
sVhttpOnly
p95
I00
sVname
p96
V_tp
p97
sa(dp98
Vdomain
p99
V.jd.com
p100
sVsecure
p101
I00
sVvalue
p102
Vjd_5189d4ed72ad8
p103
sVexpiry
p104
F1506678629.977018
sVpath
p105
g9
sVhttpOnly
p106
I01
sVname
p107
V_pst
p108
sa(dp109
Vdomain
p110
V.jd.com
p111
sVsecure
p112
I00
sVvalue
p113
VV2_ZzNtbUIFREImDRYHKB0LBGICElsSVhYSdAwTVS8aXQUzChNaclRCFXMUR11nG10UZwUZWUJcQxNFCEdkeR5eA24zG1tKUEIUG1p2VXpeGQE1UxZdRVQXFHZaQFVzGw81ZAMiVXJQShJyD0ZXfBtsNWAzIgYXOUQcIAhOUnxKXVJgBxBtRVJFFXcOQVdLGGwEV0h8XA9QShJyD0ZXfBtsBFcA
p114
sVexpiry
p115
F1505382630.934531
sVpath
p116
g9
sVhttpOnly
p117
I00
sVname
p118
Vunpl
p119
sa(dp120
Vdomain
p121
V.jd.com
p122
sVsecure
p123
I00
sVvalue
p124
V122270672.1.686661263|1.1504086631
p125
sVexpiry
p126
I1504088431
sVpath
p127
g9
sVhttpOnly
p128
I00
sVname
p129
V__jdb
p130
sa(dp131
Vdomain
p132
V.jd.com
p133
sVname
p134
VCCC_SE
p135
sVvalue
p136
VADC_j%2fgmXX0ogs5dtfYt%2bh1evDny2hDCjrmWzVnKqBZxiuZiEgDgkEtVPoq00GZ%2b%2bHRYiqdpVZiRgfTRLPuBlKziipQEL6lgb226EX7TdxnzAqwPTjnArWFn7CklA1QLnT9wTms%2b%2b01E7kE4XvMEvmR2ISRp%2b6PBH%2bgl5pLj7lW%2bzuuAKBKGJXtCibLgn4%2ba6R3tupvpyTajc4peyTNOzYszqdw3JsDWtHYKiO7j4yKQGrDDjYgizp7HZVgxP70ImC9v6nibttzXzx8ljLePtufe7WCPz642SRXVpTcxJk4e0LTiYdv2MDDIXp2j9%2bo2Y%2biq7go7OWTF6YTq2gU0hUXvCuePdNRRj%2b%2fa0M1W4MsnpDZVbpLb%2bOaH7OlfC8V9gWTDu8pnehnyYSAWjpdv0E%2fOiHQCLgOZeFhL4mkSrqwxsNpQR1qx9O3bhmMugFRzdE6vNO5CT6mOEX7ihGtvS%2fam9FJ%2fFoaYX%2bB%2fDGbunwKPXGs%3d
p137
sVpath
p138
g9
sVhttpOnly
p139
I00
sVsecure
p140
I00
sa(dp141
Vdomain
p142
V.jd.com
p143
sVsecure
p144
I00
sVvalue
p145
V122270672.686661263.1504086630.1504086630.1504086631.1
p146
sVexpiry
p147
I1519638631
sVpath
p148
g9
sVhttpOnly
p149
I00
sVname
p150
V__jda
p151
sa(dp152
Vdomain
p153
V.www.jd.com
p154
sVsecure
p155
I00
sVvalue
p156
Vtrue
p157
sVexpiry
p158
I1506678631
sVpath
p159
g9
sVhttpOnly
p160
I00
sVname
p161
Vo2-webp
p162
sa.